; Function Attrs: mustprogress uwtable
define hidden void @_ZN4cvc58internal6theory5arith6linear11RowsDeletedC2EiiPKi(ptr noundef nonnull align 8 captures(none) dereferenceable(88) initializes((0, 36), (40, 68), (72, 88)) %0, i32 noundef %1, i32 noundef %2, ptr noundef readonly captures(none) %3) unnamed_addr #13 align 2 personality ptr @__gxx_personality_v0 {
  %5 = getelementptr inbounds nuw i8, ptr %0, i64 8
  store i32 3, ptr %5, align 8, !tbaa !55
  %6 = getelementptr inbounds nuw i8, ptr %0, i64 12
  store i32 %1, ptr %6, align 4, !tbaa !73
  %7 = getelementptr inbounds nuw i8, ptr %0, i64 16
  store i32 0, ptr %7, align 8, !tbaa !74
  %8 = getelementptr inbounds nuw i8, ptr %0, i64 20
  store i32 -1, ptr %8, align 4, !tbaa !75
  %9 = getelementptr inbounds nuw i8, ptr %0, i64 24
  store double 0.000000e+00, ptr %9, align 8, !tbaa !76
  %10 = getelementptr inbounds nuw i8, ptr %0, i64 32
  %11 = getelementptr inbounds nuw i8, ptr %0, i64 40
  tail call void @llvm.memset.p0.i64(ptr noundef nonnull align 8 dereferenceable(16) %11, i8 0, i64 16, i1 false)
  %12 = getelementptr inbounds nuw i8, ptr %0, i64 56
  store i32 -1, ptr %12, align 8, !tbaa !77
  %13 = getelementptr inbounds nuw i8, ptr %0, i64 60
  store i32 -1, ptr %13, align 4, !tbaa !78
  %14 = getelementptr inbounds nuw i8, ptr %0, i64 64
  store i32 -1, ptr %14, align 8, !tbaa !79
  %15 = getelementptr inbounds nuw i8, ptr %0, i64 72
  tail call void @llvm.memset.p0.i64(ptr noundef nonnull align 8 dereferenceable(16) %15, i8 0, i64 16, i1 false)
  store ptr getelementptr inbounds nuw inrange(-16, 16) (i8, ptr @_ZTVN4cvc58internal6theory5arith6linear11RowsDeletedE, i64 16), ptr %0, align 8, !tbaa !41
  store i32 %2, ptr %10, align 8, !tbaa !36
  %16 = add i32 %2, 1
  %17 = sext i32 %16 to i64
  %18 = icmp slt i32 %2, -1
  %19 = shl nsw i64 %17, 2
  %20 = select i1 %18, i64 -1, i64 %19
  %21 = invoke noalias noundef nonnull ptr @_Znam(i64 noundef %20) #29
          to label %.noexc unwind label %26

.noexc:                                           ; preds = %4
  store ptr %21, ptr %11, align 8, !tbaa !39
  %22 = shl nsw i64 %17, 3
  %23 = select i1 %18, i64 -1, i64 %22
  %24 = invoke noalias noundef nonnull ptr @_Znam(i64 noundef %23) #29
          to label %_ZN4cvc58internal6theory5arith6linear12PrimitiveVec5setupEi.exit unwind label %26

_ZN4cvc58internal6theory5arith6linear12PrimitiveVec5setupEi.exit: ; preds = %.noexc
  %25 = getelementptr inbounds nuw i8, ptr %0, i64 48
  store ptr %24, ptr %25, align 8, !tbaa !40
  %.not12 = icmp slt i32 %2, 1
  br i1 %.not12, label %._crit_edge, label %.lr.ph

.lr.ph:                                           ; preds = %_ZN4cvc58internal6theory5arith6linear12PrimitiveVec5setupEi.exit
  %wide.trip.count = zext i32 %16 to i64
  br label %28

._crit_edge:                                      ; preds = %28, %_ZN4cvc58internal6theory5arith6linear12PrimitiveVec5setupEi.exit
  ret void

26:                                               ; preds = %.noexc, %4
  %27 = landingpad { ptr, i32 }
          cleanup
  tail call void @_ZN4cvc58internal6theory5arith6linear7CutInfoD2Ev(ptr noundef nonnull align 8 dereferenceable(88) %0) #27
  resume { ptr, i32 } %27

28:                                               ; preds = %.lr.ph, %28
  %indvars.iv = phi i64 [ 1, %.lr.ph ], [ %indvars.iv.next, %28 ]
  %29 = getelementptr inbounds nuw double, ptr %24, i64 %indvars.iv
  store double 0.000000e+00, ptr %29, align 8, !tbaa !52
  %30 = getelementptr inbounds nuw i32, ptr %3, i64 %indvars.iv
  %31 = load i32, ptr %30, align 4, !tbaa !13
  %32 = getelementptr inbounds nuw i32, ptr %21, i64 %indvars.iv
  store i32 %31, ptr %32, align 4, !tbaa !13
  %indvars.iv.next = add nuw nsw i64 %indvars.iv, 1
  %exitcond.not = icmp eq i64 %indvars.iv.next, %wide.trip.count
  br i1 %exitcond.not, label %._crit_edge, label %28, !llvm.loop !191
}